target datalayout = "e-m:e-p270:32:32-p271:32:32-p272:64:64-i64:64-i128:128-f80:128-n8:16:32:64-S128"
target triple = "x86_64-pc-linux-gnu"

%struct.ssl_connection_st = type { %struct.ssl_st, ptr, i32, ptr, ptr, ptr, i32, ptr, i32, i32, i32, i32, %struct.OSSL_TIME, %struct.OSSL_TIME, %struct.ossl_statem_st, i32, ptr, ptr, i64, i64, i64, %struct.ossl_quic_tls_callbacks_st, ptr, ptr, %struct.anon, ptr, ptr, ptr, i32, ptr, %struct.ssl_dane_st, ptr, ptr, ptr, ptr, i32, [64 x i8], [64 x i8], [64 x i8], [64 x i8], [64 x i8], [64 x i8], [64 x i8], [64 x i8], [64 x i8], [64 x i8], [64 x i8], [64 x i8], ptr, [64 x i8], i64, i32, i64, [32 x i8], ptr, ptr, ptr, i64, ptr, [32 x i8], i64, i32, ptr, ptr, i32, i32, ptr, ptr, ptr, ptr, ptr, i64, ptr, ptr, i64, i32, i32, i32, i64, i32, i32, i64, i64, i64, %struct.anon.1, ptr, i32, ptr, ptr, ptr, i32, ptr, ptr, ptr, i32, i32, i32, i32, ptr, i64, i32, ptr, %struct.srp_ctx_st, ptr, %struct.record_layer_st, ptr, ptr, ptr, ptr, i64, i32, i32, i32, i64, i64, i64, ptr, ptr, ptr, ptr, ptr, i64, ptr, i64, ptr, i64 }
%struct.ssl_st = type { i32, ptr, ptr, ptr, %struct.CRYPTO_REF_COUNT, ptr, %struct.crypto_ex_data_st }
%struct.CRYPTO_REF_COUNT = type { i32 }
%struct.crypto_ex_data_st = type { ptr, ptr }
%struct.OSSL_TIME = type { i64 }
%struct.ossl_statem_st = type { i32, i32, i32, i32, i32, i32, i32, i32, i32, i32, i32, i32, i32, ptr, ptr, ptr, i8 }
%struct.ossl_quic_tls_callbacks_st = type { ptr, ptr, ptr, ptr, ptr, ptr }
%struct.anon = type { i64, [32 x i8], [32 x i8], ptr, ptr, i32, i32, i32, i32, [2 x i8], i32, i32, i32, i32, %struct.anon.0, [64 x i8], i64, [64 x i8], i64, i32, i32, ptr, i64, ptr, i64, i32, i8, i8, i16, ptr, i16 }
%struct.anon.0 = type { [128 x i8], i64, [128 x i8], i64, i64, i32, ptr, ptr, [4 x ptr], [4 x i16], i64, i32, ptr, i64, ptr, i64, ptr, ptr, ptr, i32, i64, ptr, i32, ptr, i64, ptr, i64, ptr, i64, ptr, ptr, ptr, ptr, i64, i64, ptr, ptr, i32, i32, i32, i32 }
%struct.ssl_dane_st = type { ptr, ptr, ptr, ptr, ptr, i32, i32, i32, i64 }
%struct.anon.1 = type { [29 x i8], ptr, ptr, ptr, i32, ptr, i16, i32, %struct.anon.2, i32, i32, i64, ptr, i64, ptr, i64, ptr, i64, ptr, i64, ptr, i64, ptr, ptr, ptr, ptr, ptr, ptr, ptr, i64, ptr, i64, i32, i32, i32, i32, ptr, i64, i32, i8, i32, [4 x i32], i32, i8, i8, i8, i8 }
%struct.anon.2 = type { ptr, ptr, ptr, i64 }
%struct.srp_ctx_st = type { ptr, ptr, ptr, ptr, ptr, ptr, ptr, ptr, ptr, ptr, ptr, ptr, ptr, ptr, i32, i64 }
%struct.record_layer_st = type { ptr, ptr, ptr, ptr, ptr, ptr, ptr, ptr, i64, i32, i64, [4 x i8], i64, i64, i8, ptr, i32, ptr, ptr, ptr, i64, i64, i64, i64, [32 x %struct.tls_record_st] }
%struct.tls_record_st = type { ptr, i32, i8, ptr, ptr, i64, i64, i16, [8 x i8] }
%struct.ssl_session_st = type { i32, i64, [64 x i8], [512 x i8], i64, [32 x i8], i64, [32 x i8], ptr, ptr, i32, ptr, ptr, ptr, i64, %struct.OSSL_TIME, %struct.OSSL_TIME, %struct.OSSL_TIME, i32, ptr, i64, i32, %struct.crypto_ex_data_st, %struct.anon.3, ptr, ptr, i64, i32, ptr, ptr, ptr, %struct.CRYPTO_REF_COUNT }
%struct.anon.3 = type { ptr, ptr, i64, i64, i32, i32, ptr, i64, i8 }
%struct.ssl_ctx_st = type { ptr, ptr, ptr, ptr, ptr, ptr, ptr, i64, ptr, ptr, i32, %struct.OSSL_TIME, ptr, ptr, ptr, %struct.anon.4, %struct.CRYPTO_REF_COUNT, ptr, ptr, ptr, ptr, ptr, ptr, ptr, ptr, ptr, %struct.crypto_ex_data_st, ptr, ptr, ptr, ptr, ptr, ptr, ptr, i64, i32, i32, i32, i64, ptr, ptr, i32, ptr, ptr, i32, i64, [32 x i8], ptr, ptr, ptr, i32, ptr, ptr, ptr, i64, i64, i64, i64, ptr, ptr, ptr, ptr, ptr, %struct.anon.5, ptr, ptr, ptr, ptr, %struct.srp_ctx_st, %struct.dane_ctx_st, ptr, ptr, ptr, ptr, i32, i32, ptr, ptr, i64, i64, ptr, ptr, ptr, i64, ptr, ptr, i32, ptr, ptr, ptr, [14 x i32], [24 x ptr], [14 x ptr], [14 x i64], i64, ptr, ptr, ptr, i64, i64, ptr, i64, i64, i32, i32, i32, i32, ptr, i64, ptr, i64, i64, ptr, ptr }
%struct.anon.4 = type { i32, i32, i32, i32, i32, i32, i32, i32, i32, i32, i32 }
%struct.anon.5 = type { ptr, ptr, [16 x i8], ptr, ptr, ptr, ptr, ptr, i32, i8, i64, ptr, i64, ptr, i64, ptr, i64, ptr, ptr, i64, ptr, ptr, ptr, i64, ptr, ptr, ptr, ptr, [32 x i8] }
%struct.dane_ctx_st = type { ptr, ptr, i8, i64 }

@.str.1 = private unnamed_addr constant [36 x i8] c"../openssl/ssl/statem/statem_srvr.c\00", align 1
@__func__.tls_handle_alpn = private unnamed_addr constant [16 x i8] c"tls_handle_alpn\00", align 1

; Function Attrs: nounwind uwtable
define i32 @tls_handle_alpn(ptr noundef %0) #0 {
  %2 = alloca i32, align 4
  %3 = alloca ptr, align 8
  %4 = alloca ptr, align 8
  %5 = alloca i8, align 1
  %6 = alloca ptr, align 8
  %7 = alloca i32, align 4
  %8 = alloca i32, align 4
  store ptr %0, ptr %3, align 8, !tbaa !11
  call void @llvm.lifetime.start.p0(i64 8, ptr %4) #9
  store ptr null, ptr %4, align 8, !tbaa !168
  call void @llvm.lifetime.start.p0(i64 1, ptr %5) #9
  store i8 0, ptr %5, align 1, !tbaa !211
  call void @llvm.lifetime.start.p0(i64 8, ptr %6) #9
  %9 = load ptr, ptr %3, align 8, !tbaa !11
  %10 = getelementptr inbounds nuw %struct.ssl_connection_st, ptr %9, i32 0, i32 0
  %11 = getelementptr inbounds nuw %struct.ssl_st, ptr %10, i32 0, i32 1
  %12 = load ptr, ptr %11, align 8, !tbaa !147
  store ptr %12, ptr %6, align 8, !tbaa !148
  %13 = load ptr, ptr %6, align 8, !tbaa !148
  %14 = getelementptr inbounds nuw %struct.ssl_ctx_st, ptr %13, i32 0, i32 63
  %15 = getelementptr inbounds nuw %struct.anon.5, ptr %14, i32 0, i32 20
  %16 = load ptr, ptr %15, align 8, !tbaa !259
  %17 = icmp ne ptr %16, null
  br i1 %17, label %18, label %173

18:                                               ; preds = %1
  %19 = load ptr, ptr %3, align 8, !tbaa !11
  %20 = getelementptr inbounds nuw %struct.ssl_connection_st, ptr %19, i32 0, i32 24
  %21 = getelementptr inbounds nuw %struct.anon, ptr %20, i32 0, i32 23
  %22 = load ptr, ptr %21, align 8, !tbaa !260
  %23 = icmp ne ptr %22, null
  br i1 %23, label %24, label %173

24:                                               ; preds = %18
  call void @llvm.lifetime.start.p0(i64 4, ptr %7) #9
  %25 = load ptr, ptr %6, align 8, !tbaa !148
  %26 = getelementptr inbounds nuw %struct.ssl_ctx_st, ptr %25, i32 0, i32 63
  %27 = getelementptr inbounds nuw %struct.anon.5, ptr %26, i32 0, i32 20
  %28 = load ptr, ptr %27, align 8, !tbaa !259
  %29 = load ptr, ptr %3, align 8, !tbaa !11
  %30 = getelementptr inbounds nuw %struct.ssl_connection_st, ptr %29, i32 0, i32 1
  %31 = load ptr, ptr %30, align 8, !tbaa !163
  %32 = load ptr, ptr %3, align 8, !tbaa !11
  %33 = getelementptr inbounds nuw %struct.ssl_connection_st, ptr %32, i32 0, i32 24
  %34 = getelementptr inbounds nuw %struct.anon, ptr %33, i32 0, i32 23
  %35 = load ptr, ptr %34, align 8, !tbaa !260
  %36 = load ptr, ptr %3, align 8, !tbaa !11
  %37 = getelementptr inbounds nuw %struct.ssl_connection_st, ptr %36, i32 0, i32 24
  %38 = getelementptr inbounds nuw %struct.anon, ptr %37, i32 0, i32 24
  %39 = load i64, ptr %38, align 8, !tbaa !261
  %40 = trunc i64 %39 to i32
  %41 = load ptr, ptr %6, align 8, !tbaa !148
  %42 = getelementptr inbounds nuw %struct.ssl_ctx_st, ptr %41, i32 0, i32 63
  %43 = getelementptr inbounds nuw %struct.anon.5, ptr %42, i32 0, i32 21
  %44 = load ptr, ptr %43, align 8, !tbaa !262
  %45 = call i32 %28(ptr noundef %31, ptr noundef %4, ptr noundef %5, ptr noundef %35, i32 noundef %40, ptr noundef %44)
  store i32 %45, ptr %7, align 4, !tbaa !13
  %46 = load i32, ptr %7, align 4, !tbaa !13
  %47 = icmp eq i32 %46, 0
  br i1 %47, label %48, label %163

48:                                               ; preds = %24
  %49 = load ptr, ptr %3, align 8, !tbaa !11
  %50 = getelementptr inbounds nuw %struct.ssl_connection_st, ptr %49, i32 0, i32 24
  %51 = getelementptr inbounds nuw %struct.anon, ptr %50, i32 0, i32 21
  %52 = load ptr, ptr %51, align 8, !tbaa !217
  call void @CRYPTO_free(ptr noundef %52, ptr noundef @.str.1, i32 noundef 2211)
  %53 = load ptr, ptr %4, align 8, !tbaa !168
  %54 = load i8, ptr %5, align 1, !tbaa !211
  %55 = zext i8 %54 to i64
  %56 = call noalias ptr @CRYPTO_memdup(ptr noundef %53, i64 noundef %55, ptr noundef @.str.1, i32 noundef 2212)
  %57 = load ptr, ptr %3, align 8, !tbaa !11
  %58 = getelementptr inbounds nuw %struct.ssl_connection_st, ptr %57, i32 0, i32 24
  %59 = getelementptr inbounds nuw %struct.anon, ptr %58, i32 0, i32 21
  store ptr %56, ptr %59, align 8, !tbaa !217
  %60 = load ptr, ptr %3, align 8, !tbaa !11
  %61 = getelementptr inbounds nuw %struct.ssl_connection_st, ptr %60, i32 0, i32 24
  %62 = getelementptr inbounds nuw %struct.anon, ptr %61, i32 0, i32 21
  %63 = load ptr, ptr %62, align 8, !tbaa !217
  %64 = icmp eq ptr %63, null
  br i1 %64, label %65, label %70

65:                                               ; preds = %48
  %66 = load ptr, ptr %3, align 8, !tbaa !11
  %67 = getelementptr inbounds nuw %struct.ssl_connection_st, ptr %66, i32 0, i32 24
  %68 = getelementptr inbounds nuw %struct.anon, ptr %67, i32 0, i32 22
  store i64 0, ptr %68, align 8, !tbaa !219
  call void @ERR_new()
  call void @ERR_set_debug(ptr noundef @.str.1, i32 noundef 2215, ptr noundef @__func__.tls_handle_alpn)
  %69 = load ptr, ptr %3, align 8, !tbaa !11
  call void (ptr, i32, i32, ptr, ...) @ossl_statem_fatal(ptr noundef %69, i32 noundef 80, i32 noundef 786691, ptr noundef null)
  store i32 0, ptr %2, align 4
  store i32 1, ptr %8, align 4
  br label %170

70:                                               ; preds = %48
  %71 = load i8, ptr %5, align 1, !tbaa !211
  %72 = zext i8 %71 to i64
  %73 = load ptr, ptr %3, align 8, !tbaa !11
  %74 = getelementptr inbounds nuw %struct.ssl_connection_st, ptr %73, i32 0, i32 24
  %75 = getelementptr inbounds nuw %struct.anon, ptr %74, i32 0, i32 22
  store i64 %72, ptr %75, align 8, !tbaa !219
  %76 = load ptr, ptr %3, align 8, !tbaa !11
  %77 = getelementptr inbounds nuw %struct.ssl_connection_st, ptr %76, i32 0, i32 24
  %78 = getelementptr inbounds nuw %struct.anon, ptr %77, i32 0, i32 20
  store i32 0, ptr %78, align 4, !tbaa !88
  %79 = load ptr, ptr %3, align 8, !tbaa !11
  %80 = getelementptr inbounds nuw %struct.ssl_connection_st, ptr %79, i32 0, i32 54
  %81 = load ptr, ptr %80, align 8, !tbaa !97
  %82 = getelementptr inbounds nuw %struct.ssl_session_st, ptr %81, i32 0, i32 23
  %83 = getelementptr inbounds nuw %struct.anon.3, ptr %82, i32 0, i32 6
  %84 = load ptr, ptr %83, align 8, !tbaa !218
  %85 = icmp eq ptr %84, null
  br i1 %85, label %108, label %86

86:                                               ; preds = %70
  %87 = load i8, ptr %5, align 1, !tbaa !211
  %88 = zext i8 %87 to i64
  %89 = load ptr, ptr %3, align 8, !tbaa !11
  %90 = getelementptr inbounds nuw %struct.ssl_connection_st, ptr %89, i32 0, i32 54
  %91 = load ptr, ptr %90, align 8, !tbaa !97
  %92 = getelementptr inbounds nuw %struct.ssl_session_st, ptr %91, i32 0, i32 23
  %93 = getelementptr inbounds nuw %struct.anon.3, ptr %92, i32 0, i32 7
  %94 = load i64, ptr %93, align 8, !tbaa !220
  %95 = icmp ne i64 %88, %94
  br i1 %95, label %108, label %96

96:                                               ; preds = %86
  %97 = load ptr, ptr %4, align 8, !tbaa !168
  %98 = load ptr, ptr %3, align 8, !tbaa !11
  %99 = getelementptr inbounds nuw %struct.ssl_connection_st, ptr %98, i32 0, i32 54
  %100 = load ptr, ptr %99, align 8, !tbaa !97
  %101 = getelementptr inbounds nuw %struct.ssl_session_st, ptr %100, i32 0, i32 23
  %102 = getelementptr inbounds nuw %struct.anon.3, ptr %101, i32 0, i32 6
  %103 = load ptr, ptr %102, align 8, !tbaa !218
  %104 = load i8, ptr %5, align 1, !tbaa !211
  %105 = zext i8 %104 to i64
  %106 = call i32 @memcmp(ptr noundef %97, ptr noundef %103, i64 noundef %105) #11
  %107 = icmp ne i32 %106, 0
  br i1 %107, label %108, label %162

108:                                              ; preds = %96, %86, %70
  %109 = load ptr, ptr %3, align 8, !tbaa !11
  %110 = getelementptr inbounds nuw %struct.ssl_connection_st, ptr %109, i32 0, i32 84
  %111 = getelementptr inbounds nuw %struct.anon.1, ptr %110, i32 0, i32 35
  store i32 0, ptr %111, align 4, !tbaa !263
  %112 = load ptr, ptr %3, align 8, !tbaa !11
  %113 = getelementptr inbounds nuw %struct.ssl_connection_st, ptr %112, i32 0, i32 28
  %114 = load i32, ptr %113, align 8, !tbaa !116
  %115 = icmp ne i32 %114, 0
  br i1 %115, label %161, label %116

116:                                              ; preds = %108
  %117 = load ptr, ptr %3, align 8, !tbaa !11
  %118 = getelementptr inbounds nuw %struct.ssl_connection_st, ptr %117, i32 0, i32 54
  %119 = load ptr, ptr %118, align 8, !tbaa !97
  %120 = getelementptr inbounds nuw %struct.ssl_session_st, ptr %119, i32 0, i32 23
  %121 = getelementptr inbounds nuw %struct.anon.3, ptr %120, i32 0, i32 6
  %122 = load ptr, ptr %121, align 8, !tbaa !218
  %123 = icmp eq ptr %122, null
  %124 = zext i1 %123 to i32
  %125 = icmp ne i32 %124, 0
  %126 = xor i1 %125, true
  %127 = xor i1 %126, true
  %128 = zext i1 %127 to i32
  %129 = sext i32 %128 to i64
  %130 = call i64 @llvm.expect.i64(i64 %129, i64 1)
  %131 = icmp ne i64 %130, 0
  br i1 %131, label %134, label %132

132:                                              ; preds = %116
  call void @ERR_new()
  call void @ERR_set_debug(ptr noundef @.str.1, i32 noundef 2240, ptr noundef @__func__.tls_handle_alpn)
  %133 = load ptr, ptr %3, align 8, !tbaa !11
  call void (ptr, i32, i32, ptr, ...) @ossl_statem_fatal(ptr noundef %133, i32 noundef 80, i32 noundef 786691, ptr noundef null)
  store i32 0, ptr %2, align 4
  store i32 1, ptr %8, align 4
  br label %170

134:                                              ; preds = %116
  %135 = load ptr, ptr %4, align 8, !tbaa !168
  %136 = load i8, ptr %5, align 1, !tbaa !211
  %137 = zext i8 %136 to i64
  %138 = call noalias ptr @CRYPTO_memdup(ptr noundef %135, i64 noundef %137, ptr noundef @.str.1, i32 noundef 2244)
  %139 = load ptr, ptr %3, align 8, !tbaa !11
  %140 = getelementptr inbounds nuw %struct.ssl_connection_st, ptr %139, i32 0, i32 54
  %141 = load ptr, ptr %140, align 8, !tbaa !97
  %142 = getelementptr inbounds nuw %struct.ssl_session_st, ptr %141, i32 0, i32 23
  %143 = getelementptr inbounds nuw %struct.anon.3, ptr %142, i32 0, i32 6
  store ptr %138, ptr %143, align 8, !tbaa !218
  %144 = load ptr, ptr %3, align 8, !tbaa !11
  %145 = getelementptr inbounds nuw %struct.ssl_connection_st, ptr %144, i32 0, i32 54
  %146 = load ptr, ptr %145, align 8, !tbaa !97
  %147 = getelementptr inbounds nuw %struct.ssl_session_st, ptr %146, i32 0, i32 23
  %148 = getelementptr inbounds nuw %struct.anon.3, ptr %147, i32 0, i32 6
  %149 = load ptr, ptr %148, align 8, !tbaa !218
  %150 = icmp eq ptr %149, null
  br i1 %150, label %151, label %153

151:                                              ; preds = %134
  call void @ERR_new()
  call void @ERR_set_debug(ptr noundef @.str.1, i32 noundef 2247, ptr noundef @__func__.tls_handle_alpn)
  %152 = load ptr, ptr %3, align 8, !tbaa !11
  call void (ptr, i32, i32, ptr, ...) @ossl_statem_fatal(ptr noundef %152, i32 noundef 80, i32 noundef 786691, ptr noundef null)
  store i32 0, ptr %2, align 4
  store i32 1, ptr %8, align 4
  br label %170

153:                                              ; preds = %134
  %154 = load i8, ptr %5, align 1, !tbaa !211
  %155 = zext i8 %154 to i64
  %156 = load ptr, ptr %3, align 8, !tbaa !11
  %157 = getelementptr inbounds nuw %struct.ssl_connection_st, ptr %156, i32 0, i32 54
  %158 = load ptr, ptr %157, align 8, !tbaa !97
  %159 = getelementptr inbounds nuw %struct.ssl_session_st, ptr %158, i32 0, i32 23
  %160 = getelementptr inbounds nuw %struct.anon.3, ptr %159, i32 0, i32 7
  store i64 %155, ptr %160, align 8, !tbaa !220
  br label %161

161:                                              ; preds = %153, %108
  br label %162

162:                                              ; preds = %161, %96
  store i32 1, ptr %2, align 4
  store i32 1, ptr %8, align 4
  br label %170

163:                                              ; preds = %24
  %164 = load i32, ptr %7, align 4, !tbaa !13
  %165 = icmp ne i32 %164, 3
  br i1 %165, label %166, label %168

166:                                              ; preds = %163
  call void @ERR_new()
  call void @ERR_set_debug(ptr noundef @.str.1, i32 noundef 2257, ptr noundef @__func__.tls_handle_alpn)
  %167 = load ptr, ptr %3, align 8, !tbaa !11
  call void (ptr, i32, i32, ptr, ...) @ossl_statem_fatal(ptr noundef %167, i32 noundef 120, i32 noundef 235, ptr noundef null)
  store i32 0, ptr %2, align 4
  store i32 1, ptr %8, align 4
  br label %170

168:                                              ; preds = %163
  br label %169

169:                                              ; preds = %168
  store i32 0, ptr %8, align 4
  br label %170

170:                                              ; preds = %169, %166, %162, %151, %132, %65
  call void @llvm.lifetime.end.p0(i64 4, ptr %7) #9
  %171 = load i32, ptr %8, align 4
  switch i32 %171, label %186 [
    i32 0, label %172
  ]

172:                                              ; preds = %170
  br label %173

173:                                              ; preds = %172, %18, %1
  %174 = load ptr, ptr %3, align 8, !tbaa !11
  %175 = getelementptr inbounds nuw %struct.ssl_connection_st, ptr %174, i32 0, i32 54
  %176 = load ptr, ptr %175, align 8, !tbaa !97
  %177 = getelementptr inbounds nuw %struct.ssl_session_st, ptr %176, i32 0, i32 23
  %178 = getelementptr inbounds nuw %struct.anon.3, ptr %177, i32 0, i32 6
  %179 = load ptr, ptr %178, align 8, !tbaa !218
  %180 = icmp ne ptr %179, null
  br i1 %180, label %181, label %185

181:                                              ; preds = %173
  %182 = load ptr, ptr %3, align 8, !tbaa !11
  %183 = getelementptr inbounds nuw %struct.ssl_connection_st, ptr %182, i32 0, i32 84
  %184 = getelementptr inbounds nuw %struct.anon.1, ptr %183, i32 0, i32 35
  store i32 0, ptr %184, align 4, !tbaa !263
  br label %185

185:                                              ; preds = %181, %173
  store i32 1, ptr %2, align 4
  store i32 1, ptr %8, align 4
  br label %186

186:                                              ; preds = %185, %170
  call void @llvm.lifetime.end.p0(i64 8, ptr %6) #9
  call void @llvm.lifetime.end.p0(i64 1, ptr %5) #9
  call void @llvm.lifetime.end.p0(i64 8, ptr %4) #9
  %187 = load i32, ptr %2, align 4
  ret i32 %187
}