; Function Attrs: nounwind uwtable
define range(i32 0, 2) i32 @tls_handle_alpn(ptr noundef %0) local_unnamed_addr #1 {
  %2 = alloca ptr, align 8
  %3 = alloca i8, align 1
  call void @llvm.lifetime.start.p0(i64 8, ptr nonnull %2) #12
  store ptr null, ptr %2, align 8, !tbaa !162
  call void @llvm.lifetime.start.p0(i64 1, ptr nonnull %3) #12
  store i8 0, ptr %3, align 1, !tbaa !193
  %4 = getelementptr inbounds nuw i8, ptr %0, i64 8
  %5 = load ptr, ptr %4, align 8, !tbaa !136
  %6 = getelementptr inbounds nuw i8, ptr %5, i64 720
  %7 = load ptr, ptr %6, align 8, !tbaa !275
  %.not = icmp eq ptr %7, null
  br i1 %.not, label %64, label %8

8:                                                ; preds = %1
  %9 = getelementptr inbounds nuw i8, ptr %0, i64 1224
  %10 = load ptr, ptr %9, align 8, !tbaa !276
  %.not38 = icmp eq ptr %10, null
  br i1 %.not38, label %64, label %11

11:                                               ; preds = %8
  %12 = getelementptr inbounds nuw i8, ptr %0, i64 64
  %13 = load ptr, ptr %12, align 8, !tbaa !151
  %14 = getelementptr inbounds nuw i8, ptr %0, i64 1232
  %15 = load i64, ptr %14, align 8, !tbaa !277
  %16 = trunc i64 %15 to i32
  %17 = getelementptr inbounds nuw i8, ptr %5, i64 728
  %18 = load ptr, ptr %17, align 8, !tbaa !278
  %19 = call i32 %7(ptr noundef %13, ptr noundef nonnull %2, ptr noundef nonnull %3, ptr noundef nonnull %10, i32 noundef %16, ptr noundef %18) #12
  switch i32 %19, label %63 [
    i32 0, label %20
    i32 3, label %64
  ]

20:                                               ; preds = %11
  %21 = getelementptr inbounds nuw i8, ptr %0, i64 1208
  %22 = load ptr, ptr %21, align 8, !tbaa !199
  call void @CRYPTO_free(ptr noundef %22, ptr noundef nonnull @.str.1, i32 noundef 2211) #12
  %23 = load ptr, ptr %2, align 8, !tbaa !162
  %24 = load i8, ptr %3, align 1, !tbaa !193
  %25 = zext i8 %24 to i64
  %26 = call noalias ptr @CRYPTO_memdup(ptr noundef %23, i64 noundef %25, ptr noundef nonnull @.str.1, i32 noundef 2212) #12
  store ptr %26, ptr %21, align 8, !tbaa !199
  %27 = icmp eq ptr %26, null
  br i1 %27, label %28, label %30

28:                                               ; preds = %20
  %29 = getelementptr inbounds nuw i8, ptr %0, i64 1216
  store i64 0, ptr %29, align 8, !tbaa !201
  call void @ERR_new() #12
  call void @ERR_set_debug(ptr noundef nonnull @.str.1, i32 noundef 2215, ptr noundef nonnull @__func__.tls_handle_alpn) #12
  call void (ptr, i32, i32, ptr, ...) @ossl_statem_fatal(ptr noundef nonnull %0, i32 noundef 80, i32 noundef 786691, ptr noundef null) #12
  br label %.thread46

30:                                               ; preds = %20
  %31 = load i8, ptr %3, align 1, !tbaa !193
  %32 = zext i8 %31 to i64
  %33 = getelementptr inbounds nuw i8, ptr %0, i64 1216
  store i64 %32, ptr %33, align 8, !tbaa !201
  %34 = getelementptr inbounds nuw i8, ptr %0, i64 1204
  store i32 0, ptr %34, align 4, !tbaa !90
  %35 = getelementptr inbounds nuw i8, ptr %0, i64 2304
  %36 = load ptr, ptr %35, align 8, !tbaa !79
  %37 = getelementptr inbounds nuw i8, ptr %36, i64 840
  %38 = load ptr, ptr %37, align 8, !tbaa !200
  %39 = icmp eq ptr %38, null
  br i1 %39, label %.thread, label %40

40:                                               ; preds = %30
  %41 = getelementptr inbounds nuw i8, ptr %36, i64 848
  %42 = load i64, ptr %41, align 8, !tbaa !202
  %.not40 = icmp eq i64 %42, %32
  br i1 %.not40, label %43, label %45

43:                                               ; preds = %40
  %44 = load ptr, ptr %2, align 8, !tbaa !162
  %bcmp = call i32 @bcmp(ptr %44, ptr nonnull %38, i64 %32)
  %.not41 = icmp eq i32 %bcmp, 0
  br i1 %.not41, label %.thread46, label %45

45:                                               ; preds = %43, %40
  %46 = getelementptr inbounds nuw i8, ptr %0, i64 2844
  store i32 0, ptr %46, align 4, !tbaa !279
  %47 = getelementptr inbounds nuw i8, ptr %0, i64 1288
  %48 = load i32, ptr %47, align 8, !tbaa !100
  %.not42 = icmp eq i32 %48, 0
  br i1 %.not42, label %52, label %.thread46

.thread:                                          ; preds = %30
  %49 = getelementptr inbounds nuw i8, ptr %0, i64 2844
  store i32 0, ptr %49, align 4, !tbaa !279
  %50 = getelementptr inbounds nuw i8, ptr %0, i64 1288
  %51 = load i32, ptr %50, align 8, !tbaa !100
  %.not4244 = icmp eq i32 %51, 0
  br i1 %.not4244, label %.thread45, label %.thread46

52:                                               ; preds = %45
  call void @ERR_new() #12
  call void @ERR_set_debug(ptr noundef nonnull @.str.1, i32 noundef 2240, ptr noundef nonnull @__func__.tls_handle_alpn) #12
  call void (ptr, i32, i32, ptr, ...) @ossl_statem_fatal(ptr noundef nonnull %0, i32 noundef 80, i32 noundef 786691, ptr noundef null) #12
  br label %.thread46

.thread45:                                        ; preds = %.thread
  %53 = load ptr, ptr %2, align 8, !tbaa !162
  %54 = call noalias ptr @CRYPTO_memdup(ptr noundef %53, i64 noundef %32, ptr noundef nonnull @.str.1, i32 noundef 2244) #12
  %55 = load ptr, ptr %35, align 8, !tbaa !79
  %56 = getelementptr inbounds nuw i8, ptr %55, i64 840
  store ptr %54, ptr %56, align 8, !tbaa !200
  %57 = icmp eq ptr %54, null
  br i1 %57, label %58, label %59

58:                                               ; preds = %.thread45
  call void @ERR_new() #12
  call void @ERR_set_debug(ptr noundef nonnull @.str.1, i32 noundef 2247, ptr noundef nonnull @__func__.tls_handle_alpn) #12
  call void (ptr, i32, i32, ptr, ...) @ossl_statem_fatal(ptr noundef nonnull %0, i32 noundef 80, i32 noundef 786691, ptr noundef null) #12
  br label %.thread46

59:                                               ; preds = %.thread45
  %60 = load i8, ptr %3, align 1, !tbaa !193
  %61 = zext i8 %60 to i64
  %62 = getelementptr inbounds nuw i8, ptr %55, i64 848
  store i64 %61, ptr %62, align 8, !tbaa !202
  br label %.thread46

63:                                               ; preds = %11
  call void @ERR_new() #12
  call void @ERR_set_debug(ptr noundef nonnull @.str.1, i32 noundef 2257, ptr noundef nonnull @__func__.tls_handle_alpn) #12
  call void (ptr, i32, i32, ptr, ...) @ossl_statem_fatal(ptr noundef nonnull %0, i32 noundef 120, i32 noundef 235, ptr noundef null) #12
  br label %.thread46

64:                                               ; preds = %11, %8, %1
  %65 = getelementptr inbounds nuw i8, ptr %0, i64 2304
  %66 = load ptr, ptr %65, align 8, !tbaa !79
  %67 = getelementptr inbounds nuw i8, ptr %66, i64 840
  %68 = load ptr, ptr %67, align 8, !tbaa !200
  %.not43 = icmp eq ptr %68, null
  br i1 %.not43, label %.thread46, label %69

69:                                               ; preds = %64
  %70 = getelementptr inbounds nuw i8, ptr %0, i64 2844
  store i32 0, ptr %70, align 4, !tbaa !279
  br label %.thread46

.thread46:                                        ; preds = %.thread, %43, %59, %45, %63, %52, %58, %28, %64, %69
  %.1 = phi i32 [ 1, %69 ], [ 1, %64 ], [ 1, %.thread ], [ 1, %43 ], [ 1, %59 ], [ 1, %45 ], [ 0, %63 ], [ 0, %52 ], [ 0, %58 ], [ 0, %28 ]
  call void @llvm.lifetime.end.p0(i64 1, ptr nonnull %3) #12
  call void @llvm.lifetime.end.p0(i64 8, ptr nonnull %2) #12
  ret i32 %.1
}